target datalayout = "e-m:e-p270:32:32-p271:32:32-p272:64:64-i64:64-i128:128-f80:128-n8:16:32:64-S128"
target triple = "x86_64-unknown-linux-gnu"

%"class.facebook::velox::crypto::MD5Context" = type { [4 x i32], [2 x i32], [64 x i8] }
%"class.std::__cxx11::basic_string" = type { %"struct.std::__cxx11::basic_string<char>::_Alloc_hider", i64, %union.anon }
%"struct.std::__cxx11::basic_string<char>::_Alloc_hider" = type { ptr }
%union.anon = type { i64, [8 x i8] }
%"class.std::allocator" = type { i8 }

@_ZZN8facebook5velox6crypto10MD5Context14DigestToBase16EPKhPcE9HEX_CODES = internal constant [17 x i8] c"0123456789abcdef\00", align 16

; Function Attrs: mustprogress nounwind uwtable
define internal void @_ZN8facebook5velox6cryptoL11ByteReverseEPhj(ptr noundef %buf, i32 noundef %longs) #0 {
entry:
  %buf.addr = alloca ptr, align 8
  %longs.addr = alloca i32, align 4
  %t = alloca i32, align 4
  store ptr %buf, ptr %buf.addr, align 8
  store i32 %longs, ptr %longs.addr, align 4
  br label %do.body

do.body:                                          ; preds = %do.cond, %entry
  %0 = load ptr, ptr %buf.addr, align 8
  %arrayidx = getelementptr inbounds i8, ptr %0, i64 3
  %1 = load i8, ptr %arrayidx, align 1
  %conv = zext i8 %1 to i32
  %shl = shl i32 %conv, 8
  %2 = load ptr, ptr %buf.addr, align 8
  %arrayidx1 = getelementptr inbounds i8, ptr %2, i64 2
  %3 = load i8, ptr %arrayidx1, align 1
  %conv2 = zext i8 %3 to i32
  %or = or i32 %shl, %conv2
  %shl3 = shl i32 %or, 16
  %4 = load ptr, ptr %buf.addr, align 8
  %arrayidx4 = getelementptr inbounds i8, ptr %4, i64 1
  %5 = load i8, ptr %arrayidx4, align 1
  %conv5 = zext i8 %5 to i32
  %shl6 = shl i32 %conv5, 8
  %6 = load ptr, ptr %buf.addr, align 8
  %arrayidx7 = getelementptr inbounds i8, ptr %6, i64 0
  %7 = load i8, ptr %arrayidx7, align 1
  %conv8 = zext i8 %7 to i32
  %or9 = or i32 %shl6, %conv8
  %or10 = or i32 %shl3, %or9
  store i32 %or10, ptr %t, align 4
  %8 = load i32, ptr %t, align 4
  %9 = load ptr, ptr %buf.addr, align 8
  store i32 %8, ptr %9, align 4
  %10 = load ptr, ptr %buf.addr, align 8
  %add.ptr = getelementptr inbounds i8, ptr %10, i64 4
  store ptr %add.ptr, ptr %buf.addr, align 8
  br label %do.cond

do.cond:                                          ; preds = %do.body
  %11 = load i32, ptr %longs.addr, align 4
  %dec = add i32 %11, -1
  store i32 %dec, ptr %longs.addr, align 4
  %tobool = icmp ne i32 %dec, 0
  br i1 %tobool, label %do.body, label %do.end, !llvm.loop !6

do.end:                                           ; preds = %do.cond
  ret void
}

; Function Attrs: mustprogress nounwind uwtable
define void @_ZN8facebook5velox6crypto10MD5Context14DigestToBase16EPKhPc(ptr noundef %digest, ptr noundef %zbuf) #0 align 2 {
entry:
  %digest.addr = alloca ptr, align 8
  %zbuf.addr = alloca ptr, align 8
  %i = alloca i32, align 4
  %j = alloca i32, align 4
  %a = alloca i32, align 4
  store ptr %digest, ptr %digest.addr, align 8
  store ptr %zbuf, ptr %zbuf.addr, align 8
  store i32 0, ptr %i, align 4
  store i32 0, ptr %j, align 4
  br label %for.cond

for.cond:                                         ; preds = %for.inc, %entry
  %0 = load i32, ptr %i, align 4
  %conv = sext i32 %0 to i64
  %cmp = icmp ult i64 %conv, 16
  br i1 %cmp, label %for.body, label %for.end

for.body:                                         ; preds = %for.cond
  %1 = load ptr, ptr %digest.addr, align 8
  %2 = load i32, ptr %i, align 4
  %idxprom = sext i32 %2 to i64
  %arrayidx = getelementptr inbounds i8, ptr %1, i64 %idxprom
  %3 = load i8, ptr %arrayidx, align 1
  %conv1 = zext i8 %3 to i32
  store i32 %conv1, ptr %a, align 4
  %4 = load i32, ptr %a, align 4
  %shr = ashr i32 %4, 4
  %and = and i32 %shr, 15
  %idxprom2 = sext i32 %and to i64
  %arrayidx3 = getelementptr inbounds [17 x i8], ptr @_ZZN8facebook5velox6crypto10MD5Context14DigestToBase16EPKhPcE9HEX_CODES, i64 0, i64 %idxprom2
  %5 = load i8, ptr %arrayidx3, align 1
  %6 = load ptr, ptr %zbuf.addr, align 8
  %7 = load i32, ptr %j, align 4
  %inc = add nsw i32 %7, 1
  store i32 %inc, ptr %j, align 4
  %idxprom4 = sext i32 %7 to i64
  %arrayidx5 = getelementptr inbounds i8, ptr %6, i64 %idxprom4
  store i8 %5, ptr %arrayidx5, align 1
  %8 = load i32, ptr %a, align 4
  %and6 = and i32 %8, 15
  %idxprom7 = sext i32 %and6 to i64
  %arrayidx8 = getelementptr inbounds [17 x i8], ptr @_ZZN8facebook5velox6crypto10MD5Context14DigestToBase16EPKhPcE9HEX_CODES, i64 0, i64 %idxprom7
  %9 = load i8, ptr %arrayidx8, align 1
  %10 = load ptr, ptr %zbuf.addr, align 8
  %11 = load i32, ptr %j, align 4
  %inc9 = add nsw i32 %11, 1
  store i32 %inc9, ptr %j, align 4
  %idxprom10 = sext i32 %11 to i64
  %arrayidx11 = getelementptr inbounds i8, ptr %10, i64 %idxprom10
  store i8 %9, ptr %arrayidx11, align 1
  br label %for.inc

for.inc:                                          ; preds = %for.body
  %12 = load i32, ptr %i, align 4
  %inc12 = add nsw i32 %12, 1
  store i32 %inc12, ptr %i, align 4
  br label %for.cond, !llvm.loop !7

for.end:                                          ; preds = %for.cond
  ret void
}

; Function Attrs: mustprogress uwtable
define void @_ZN8facebook5velox6crypto10MD5Context6FinishEPh(ptr noundef nonnull align 4 dereferenceable(88) %this, ptr noundef %out_digest) #1 align 2 {
entry:
  %this.addr = alloca ptr, align 8
  %out_digest.addr = alloca ptr, align 8
  %count = alloca i32, align 4
  %p = alloca ptr, align 8
  store ptr %this, ptr %this.addr, align 8
  store ptr %out_digest, ptr %out_digest.addr, align 8
  %this1 = load ptr, ptr %this.addr, align 8
  %bits = getelementptr inbounds %"class.facebook::velox::crypto::MD5Context", ptr %this1, i32 0, i32 1
  %arrayidx = getelementptr inbounds [2 x i32], ptr %bits, i64 0, i64 0
  %0 = load i32, ptr %arrayidx, align 4
  %shr = lshr i32 %0, 3
  %and = and i32 %shr, 63
  store i32 %and, ptr %count, align 4
  %in = getelementptr inbounds %"class.facebook::velox::crypto::MD5Context", ptr %this1, i32 0, i32 2
  %arraydecay = getelementptr inbounds [64 x i8], ptr %in, i64 0, i64 0
  %1 = load i32, ptr %count, align 4
  %idx.ext = zext i32 %1 to i64
  %add.ptr = getelementptr inbounds i8, ptr %arraydecay, i64 %idx.ext
  store ptr %add.ptr, ptr %p, align 8
  %2 = load ptr, ptr %p, align 8
  %incdec.ptr = getelementptr inbounds i8, ptr %2, i32 1
  store ptr %incdec.ptr, ptr %p, align 8
  store i8 -128, ptr %2, align 1
  %3 = load i32, ptr %count, align 4
  %sub = sub i32 63, %3
  store i32 %sub, ptr %count, align 4
  %4 = load i32, ptr %count, align 4
  %cmp = icmp ult i32 %4, 8
  br i1 %cmp, label %if.then, label %if.else

if.then:                                          ; preds = %entry
  %5 = load ptr, ptr %p, align 8
  %6 = load i32, ptr %count, align 4
  %conv = zext i32 %6 to i64
  call void @llvm.memset.p0.i64(ptr align 1 %5, i8 0, i64 %conv, i1 false)
  %in2 = getelementptr inbounds %"class.facebook::velox::crypto::MD5Context", ptr %this1, i32 0, i32 2
  %arraydecay3 = getelementptr inbounds [64 x i8], ptr %in2, i64 0, i64 0
  call void @_ZN8facebook5velox6cryptoL11ByteReverseEPhj(ptr noundef %arraydecay3, i32 noundef 16)
  %buf = getelementptr inbounds %"class.facebook::velox::crypto::MD5Context", ptr %this1, i32 0, i32 0
  %arraydecay4 = getelementptr inbounds [4 x i32], ptr %buf, i64 0, i64 0
  %in5 = getelementptr inbounds %"class.facebook::velox::crypto::MD5Context", ptr %this1, i32 0, i32 2
  %arraydecay6 = getelementptr inbounds [64 x i8], ptr %in5, i64 0, i64 0
  call void @_ZN8facebook5velox6cryptoL12MD5TransformEPjPKj(ptr noundef %arraydecay4, ptr noundef %arraydecay6)
  %in7 = getelementptr inbounds %"class.facebook::velox::crypto::MD5Context", ptr %this1, i32 0, i32 2
  %arraydecay8 = getelementptr inbounds [64 x i8], ptr %in7, i64 0, i64 0
  call void @llvm.memset.p0.i64(ptr align 4 %arraydecay8, i8 0, i64 56, i1 false)
  br label %if.end

if.else:                                          ; preds = %entry
  %7 = load ptr, ptr %p, align 8
  %8 = load i32, ptr %count, align 4
  %sub9 = sub i32 %8, 8
  %conv10 = zext i32 %sub9 to i64
  call void @llvm.memset.p0.i64(ptr align 1 %7, i8 0, i64 %conv10, i1 false)
  br label %if.end

if.end:                                           ; preds = %if.else, %if.then
  %in11 = getelementptr inbounds %"class.facebook::velox::crypto::MD5Context", ptr %this1, i32 0, i32 2
  %arraydecay12 = getelementptr inbounds [64 x i8], ptr %in11, i64 0, i64 0
  call void @_ZN8facebook5velox6cryptoL11ByteReverseEPhj(ptr noundef %arraydecay12, i32 noundef 14)
  %bits13 = getelementptr inbounds %"class.facebook::velox::crypto::MD5Context", ptr %this1, i32 0, i32 1
  %arrayidx14 = getelementptr inbounds [2 x i32], ptr %bits13, i64 0, i64 0
  %9 = load i32, ptr %arrayidx14, align 4
  %in15 = getelementptr inbounds %"class.facebook::velox::crypto::MD5Context", ptr %this1, i32 0, i32 2
  %arraydecay16 = getelementptr inbounds [64 x i8], ptr %in15, i64 0, i64 0
  %arrayidx17 = getelementptr inbounds i32, ptr %arraydecay16, i64 14
  store i32 %9, ptr %arrayidx17, align 4
  %bits18 = getelementptr inbounds %"class.facebook::velox::crypto::MD5Context", ptr %this1, i32 0, i32 1
  %arrayidx19 = getelementptr inbounds [2 x i32], ptr %bits18, i64 0, i64 1
  %10 = load i32, ptr %arrayidx19, align 4
  %in20 = getelementptr inbounds %"class.facebook::velox::crypto::MD5Context", ptr %this1, i32 0, i32 2
  %arraydecay21 = getelementptr inbounds [64 x i8], ptr %in20, i64 0, i64 0
  %arrayidx22 = getelementptr inbounds i32, ptr %arraydecay21, i64 15
  store i32 %10, ptr %arrayidx22, align 4
  %buf23 = getelementptr inbounds %"class.facebook::velox::crypto::MD5Context", ptr %this1, i32 0, i32 0
  %arraydecay24 = getelementptr inbounds [4 x i32], ptr %buf23, i64 0, i64 0
  %in25 = getelementptr inbounds %"class.facebook::velox::crypto::MD5Context", ptr %this1, i32 0, i32 2
  %arraydecay26 = getelementptr inbounds [64 x i8], ptr %in25, i64 0, i64 0
  call void @_ZN8facebook5velox6cryptoL12MD5TransformEPjPKj(ptr noundef %arraydecay24, ptr noundef %arraydecay26)
  %buf27 = getelementptr inbounds %"class.facebook::velox::crypto::MD5Context", ptr %this1, i32 0, i32 0
  %arraydecay28 = getelementptr inbounds [4 x i32], ptr %buf27, i64 0, i64 0
  call void @_ZN8facebook5velox6cryptoL11ByteReverseEPhj(ptr noundef %arraydecay28, i32 noundef 4)
  %11 = load ptr, ptr %out_digest.addr, align 8
  %buf29 = getelementptr inbounds %"class.facebook::velox::crypto::MD5Context", ptr %this1, i32 0, i32 0
  %arraydecay30 = getelementptr inbounds [4 x i32], ptr %buf29, i64 0, i64 0
  call void @llvm.memcpy.p0.p0.i64(ptr align 1 %11, ptr align 4 %arraydecay30, i64 16, i1 false)
  ret void
}

; Function Attrs: mustprogress uwtable
define noundef i32 @_ZN8facebook5velox6crypto10MD5Context9FinishHexEPc(ptr noundef nonnull align 4 dereferenceable(88) %this, ptr noundef %out_digest) #1 align 2 {
entry:
  %this.addr = alloca ptr, align 8
  %out_digest.addr = alloca ptr, align 8
  %digest = alloca [16 x i8], align 16
  store ptr %this, ptr %this.addr, align 8
  store ptr %out_digest, ptr %out_digest.addr, align 8
  %this1 = load ptr, ptr %this.addr, align 8
  %arraydecay = getelementptr inbounds [16 x i8], ptr %digest, i64 0, i64 0
  call void @_ZN8facebook5velox6crypto10MD5Context6FinishEPh(ptr noundef nonnull align 4 dereferenceable(88) %this1, ptr noundef %arraydecay)
  %arraydecay2 = getelementptr inbounds [16 x i8], ptr %digest, i64 0, i64 0
  %0 = load ptr, ptr %out_digest.addr, align 8
  call void @_ZN8facebook5velox6crypto10MD5Context14DigestToBase16EPKhPc(ptr noundef %arraydecay2, ptr noundef %0)
  ret i32 32
}

; Function Attrs: mustprogress uwtable
define void @_ZN8facebook5velox6crypto10MD5Context9FinishHexB5cxx11Ev(ptr noalias sret(%"class.std::__cxx11::basic_string") align 8 %agg.result, ptr noundef nonnull align 4 dereferenceable(88) %this) #1 align 2 personality ptr @__gxx_personality_v0 {
entry:
  %result.ptr = alloca ptr, align 8
  %this.addr = alloca ptr, align 8
  %digest = alloca [32 x i8], align 16
  %ref.tmp = alloca %"class.std::allocator", align 1
  %exn.slot = alloca ptr, align 8
  %ehselector.slot = alloca i32, align 4
  store ptr %agg.result, ptr %result.ptr, align 8
  store ptr %this, ptr %this.addr, align 8
  %this1 = load ptr, ptr %this.addr, align 8
  %arraydecay = getelementptr inbounds [32 x i8], ptr %digest, i64 0, i64 0
  %call = call noundef i32 @_ZN8facebook5velox6crypto10MD5Context9FinishHexEPc(ptr noundef nonnull align 4 dereferenceable(88) %this1, ptr noundef %arraydecay)
  %arraydecay2 = getelementptr inbounds [32 x i8], ptr %digest, i64 0, i64 0
  call void @_ZNSaIcEC1Ev(ptr noundef nonnull align 1 dereferenceable(1) %ref.tmp) #13
  invoke void @_ZNSt7__cxx1112basic_stringIcSt11char_traitsIcESaIcEEC1EPKcmRKS3_(ptr noundef nonnull align 8 dereferenceable(32) %agg.result, ptr noundef %arraydecay2, i64 noundef 32, ptr noundef nonnull align 1 dereferenceable(1) %ref.tmp)
          to label %invoke.cont unwind label %lpad

invoke.cont:                                      ; preds = %entry
  call void @_ZNSaIcED1Ev(ptr noundef nonnull align 1 dereferenceable(1) %ref.tmp) #13
  ret void

lpad:                                             ; preds = %entry
  %0 = landingpad { ptr, i32 }
          cleanup
  %1 = extractvalue { ptr, i32 } %0, 0
  store ptr %1, ptr %exn.slot, align 8
  %2 = extractvalue { ptr, i32 } %0, 1
  store i32 %2, ptr %ehselector.slot, align 4
  call void @_ZNSaIcED1Ev(ptr noundef nonnull align 1 dereferenceable(1) %ref.tmp) #13
  br label %eh.resume

eh.resume:                                        ; preds = %lpad
  %exn = load ptr, ptr %exn.slot, align 8
  %sel = load i32, ptr %ehselector.slot, align 4
  %lpad.val = insertvalue { ptr, i32 } poison, ptr %exn, 0
  %lpad.val3 = insertvalue { ptr, i32 } %lpad.val, i32 %sel, 1
  resume { ptr, i32 } %lpad.val3
}