; Function Attrs: mustprogress uwtable
define void @_ZN8facebook5velox6crypto10MD5Context9FinishHexB5cxx11Ev(ptr noalias sret(%"class.std::__cxx11::basic_string") align 8 %agg.result, ptr nocapture noundef nonnull align 4 dereferenceable(88) %this) local_unnamed_addr #6 align 2 personality ptr @__gxx_personality_v0 {
entry:
  %digest.i = alloca [16 x i8], align 16
  %digest = alloca [32 x i8], align 16
  %ref.tmp = alloca %"class.std::allocator", align 1
  call void @llvm.lifetime.start.p0(i64 16, ptr nonnull %digest.i)
  %bits.i.i = getelementptr inbounds i8, ptr %this, i64 16
  %0 = load i32, ptr %bits.i.i, align 4
  %shr.i.i = lshr i32 %0, 3
  %and.i.i = and i32 %shr.i.i, 63
  %in.i.i = getelementptr inbounds i8, ptr %this, i64 24
  %idx.ext.i.i = zext nneg i32 %and.i.i to i64
  %add.ptr.i.i = getelementptr inbounds i8, ptr %in.i.i, i64 %idx.ext.i.i
  %incdec.ptr.i.i = getelementptr inbounds i8, ptr %add.ptr.i.i, i64 1
  store i8 -128, ptr %add.ptr.i.i, align 1
  %sub.i.i = xor i32 %and.i.i, 63
  %cmp.i.i = icmp ult i32 %sub.i.i, 8
  br i1 %cmp.i.i, label %if.then.i.i, label %if.else.i.i

if.then.i.i:                                      ; preds = %entry
  %conv.i.i = zext nneg i32 %sub.i.i to i64
  tail call void @llvm.memset.p0.i64(ptr nonnull align 1 %incdec.ptr.i.i, i8 0, i64 %conv.i.i, i1 false)
  tail call fastcc void @_ZN8facebook5velox6cryptoL12MD5TransformEPjPKj(ptr noundef nonnull %this, ptr noundef nonnull %in.i.i)
  tail call void @llvm.memset.p0.i64(ptr noundef nonnull align 4 dereferenceable(56) %in.i.i, i8 0, i64 56, i1 false)
  br label %_ZN8facebook5velox6crypto10MD5Context6FinishEPh.exit.i

if.else.i.i:                                      ; preds = %entry
  %sub9.i.i = sub nsw i32 55, %and.i.i
  %conv10.i.i = zext nneg i32 %sub9.i.i to i64
  tail call void @llvm.memset.p0.i64(ptr nonnull align 1 %incdec.ptr.i.i, i8 0, i64 %conv10.i.i, i1 false)
  br label %_ZN8facebook5velox6crypto10MD5Context6FinishEPh.exit.i

_ZN8facebook5velox6crypto10MD5Context6FinishEPh.exit.i: ; preds = %if.else.i.i, %if.then.i.i
  %arrayidx17.i.i = getelementptr inbounds i8, ptr %this, i64 80
  %1 = load <2 x i32>, ptr %bits.i.i, align 4
  store <2 x i32> %1, ptr %arrayidx17.i.i, align 4
  tail call fastcc void @_ZN8facebook5velox6cryptoL12MD5TransformEPjPKj(ptr noundef nonnull %this, ptr noundef nonnull %in.i.i)
  call void @llvm.memcpy.p0.p0.i64(ptr noundef nonnull align 16 dereferenceable(16) %digest.i, ptr noundef nonnull align 4 dereferenceable(16) %this, i64 16, i1 false)
  br label %for.body.i.i

for.body.i.i:                                     ; preds = %for.body.i.i, %_ZN8facebook5velox6crypto10MD5Context6FinishEPh.exit.i
  %indvars.iv8.i.i = phi i64 [ 0, %_ZN8facebook5velox6crypto10MD5Context6FinishEPh.exit.i ], [ %indvars.iv.next9.i.i, %for.body.i.i ]
  %indvars.iv.i.i = phi i64 [ 0, %_ZN8facebook5velox6crypto10MD5Context6FinishEPh.exit.i ], [ %indvars.iv.next.i.i, %for.body.i.i ]
  %arrayidx.i.i = getelementptr inbounds i8, ptr %digest.i, i64 %indvars.iv.i.i
  %2 = load i8, ptr %arrayidx.i.i, align 1
  %conv1.i.i = zext i8 %2 to i32
  %shr.i1.i = lshr i32 %conv1.i.i, 4
  %idxprom2.i.i = zext nneg i32 %shr.i1.i to i64
  %arrayidx3.i.i = getelementptr inbounds [17 x i8], ptr @_ZZN8facebook5velox6crypto10MD5Context14DigestToBase16EPKhPcE9HEX_CODES, i64 0, i64 %idxprom2.i.i
  %3 = load i8, ptr %arrayidx3.i.i, align 1
  %4 = or disjoint i64 %indvars.iv8.i.i, 1
  %arrayidx5.i.i = getelementptr inbounds i8, ptr %digest, i64 %indvars.iv8.i.i
  store i8 %3, ptr %arrayidx5.i.i, align 2
  %and6.i.i = and i32 %conv1.i.i, 15
  %idxprom7.i.i = zext nneg i32 %and6.i.i to i64
  %arrayidx8.i.i = getelementptr inbounds [17 x i8], ptr @_ZZN8facebook5velox6crypto10MD5Context14DigestToBase16EPKhPcE9HEX_CODES, i64 0, i64 %idxprom7.i.i
  %5 = load i8, ptr %arrayidx8.i.i, align 1
  %indvars.iv.next9.i.i = add nuw nsw i64 %indvars.iv8.i.i, 2
  %arrayidx11.i.i = getelementptr inbounds i8, ptr %digest, i64 %4
  store i8 %5, ptr %arrayidx11.i.i, align 1
  %indvars.iv.next.i.i = add nuw nsw i64 %indvars.iv.i.i, 1
  %exitcond.not.i.i = icmp eq i64 %indvars.iv.next.i.i, 16
  br i1 %exitcond.not.i.i, label %_ZN8facebook5velox6crypto10MD5Context9FinishHexEPc.exit, label %for.body.i.i, !llvm.loop !6

_ZN8facebook5velox6crypto10MD5Context9FinishHexEPc.exit: ; preds = %for.body.i.i
  call void @llvm.lifetime.end.p0(i64 16, ptr nonnull %digest.i)
  call void @_ZNSaIcEC1Ev(ptr noundef nonnull align 1 dereferenceable(1) %ref.tmp) #19
  invoke void @_ZNSt7__cxx1112basic_stringIcSt11char_traitsIcESaIcEEC1EPKcmRKS3_(ptr noundef nonnull align 8 dereferenceable(32) %agg.result, ptr noundef nonnull %digest, i64 noundef 32, ptr noundef nonnull align 1 dereferenceable(1) %ref.tmp)
          to label %invoke.cont unwind label %lpad

invoke.cont:                                      ; preds = %_ZN8facebook5velox6crypto10MD5Context9FinishHexEPc.exit
  call void @_ZNSaIcED1Ev(ptr noundef nonnull align 1 dereferenceable(1) %ref.tmp) #19
  ret void

lpad:                                             ; preds = %_ZN8facebook5velox6crypto10MD5Context9FinishHexEPc.exit
  %6 = landingpad { ptr, i32 }
          cleanup
  call void @_ZNSaIcED1Ev(ptr noundef nonnull align 1 dereferenceable(1) %ref.tmp) #19
  resume { ptr, i32 } %6
}